target datalayout = "e-m:e-p270:32:32-p271:32:32-p272:64:64-i64:64-i128:128-f80:128-n8:16:32:64-S128"
target triple = "x86_64-pc-linux-gnu"

%struct.expert_field = type { i32, i32 }

@hf_capwap_cisco_element_id = internal global i32 0, align 4
@hf_capwap_cisco_value = internal global i32 0, align 4
@hf_capwap_cisco_mwar_addr = internal global i32 0, align 4
@hf_capwap_cisco_rad_name = internal global i32 0, align 4
@hf_capwap_cisco_mwar_type = internal global i32 0, align 4
@hf_capwap_cisco_mwar_hardware = internal global i32 0, align 4
@hf_capwap_cisco_mwar_software = internal global i32 0, align 4
@hf_capwap_cisco_mwar_active_ms = internal global i32 0, align 4
@hf_capwap_cisco_mwar_supported_ms = internal global i32 0, align 4
@hf_capwap_cisco_mwar_active_rad = internal global i32 0, align 4
@hf_capwap_cisco_mwar_supported_rad = internal global i32 0, align 4
@hf_capwap_cisco_ap_mode_and_type_mode = internal global i32 0, align 4
@hf_capwap_cisco_ap_mode_and_type_type = internal global i32 0, align 4
@hf_capwap_cisco_ap_static_ip_addr = internal global i32 0, align 4
@hf_capwap_cisco_ap_static_ip_netmask = internal global i32 0, align 4
@hf_capwap_cisco_ap_static_ip_gateway = internal global i32 0, align 4
@hf_capwap_cisco_ap_static_ip_type = internal global i32 0, align 4
@hf_capwap_cisco_ap_static_ip_reserved = internal global i32 0, align 4
@hf_capwap_cisco_ap_uptime_current = internal global i32 0, align 4
@hf_capwap_cisco_ap_uptime_last = internal global i32 0, align 4
@hf_capwap_cisco_ap_group_name = internal global i32 0, align 4
@hf_capwap_cisco_ap_led_state = internal global i32 0, align 4
@hf_capwap_cisco_ap_timesync = internal global i32 0, align 4
@hf_capwap_cisco_ap_timesync_type = internal global i32 0, align 4
@hf_capwap_cisco_board_data_options_ant_type = internal global i32 0, align 4
@hf_capwap_cisco_board_data_options_flex_connect = internal global i32 0, align 4
@hf_capwap_cisco_board_data_options_ap_type = internal global i32 0, align 4
@hf_capwap_cisco_board_data_options_join_priority = internal global i32 0, align 4
@hf_capwap_cisco_unknown = internal global i32 0, align 4
@ei_capwap_message_element_cisco_type = internal global %struct.expert_field zeroinitializer, align 4
@.str.1153 = private unnamed_addr constant [44 x i8] c"Unknown Vendor Specific Element Type (%02d)\00", align 1
@.str.1156 = private unnamed_addr constant [11 x i8] c": Cisco %s\00", align 1
@.str.1157 = private unnamed_addr constant [87 x i8] c"Dissector for CAPWAP Vendor Specific (Cisco) Message Element (%d) type not implemented\00", align 1

; Function Attrs: null_pointer_is_valid sspstrong uwtable
define internal i32 @dissect_capwap_message_element_vendor_cisco_type(ptr noundef %0, ptr noundef %1, i32 noundef %2, ptr noundef %3, i32 noundef %4, ptr noundef %5) #0 {
  %7 = alloca ptr, align 8
  %8 = alloca ptr, align 8
  %9 = alloca i32, align 4
  %10 = alloca ptr, align 8
  %11 = alloca i32, align 4
  %12 = alloca ptr, align 8
  %13 = alloca i32, align 4
  store ptr %0, ptr %7, align 8
  store ptr %1, ptr %8, align 8
  store i32 %2, ptr %9, align 4
  store ptr %3, ptr %10, align 8
  store i32 %4, ptr %11, align 4
  store ptr %5, ptr %12, align 8
  call void @llvm.lifetime.start.p0(i64 4, ptr %13) #3
  %14 = load ptr, ptr %8, align 8
  %15 = load i32, ptr @hf_capwap_cisco_element_id, align 4
  %16 = load ptr, ptr %7, align 8
  %17 = load i32, ptr %9, align 4
  %18 = call ptr @proto_tree_add_item(ptr noundef %14, i32 noundef %15, ptr noundef %16, i32 noundef %17, i32 noundef 2, i32 noundef 0)
  %19 = load ptr, ptr %7, align 8
  %20 = load i32, ptr %9, align 4
  %21 = call zeroext i16 @tvb_get_ntohs(ptr noundef %19, i32 noundef %20)
  %22 = zext i16 %21 to i32
  store i32 %22, ptr %13, align 4
  %23 = load ptr, ptr %12, align 8
  %24 = load i32, ptr %13, align 4
  %25 = call ptr @val_to_str(i32 noundef %24, ptr noundef @cisco_element_id_vals, ptr noundef @.str.1153)
  call void (ptr, ptr, ...) @proto_item_append_text(ptr noundef %23, ptr noundef @.str.1156, ptr noundef %25)
  %26 = load i32, ptr %9, align 4
  %27 = add i32 %26, 2
  store i32 %27, ptr %9, align 4
  %28 = load i32, ptr %11, align 4
  %29 = sub i32 %28, 6
  store i32 %29, ptr %11, align 4
  %30 = load ptr, ptr %8, align 8
  %31 = load i32, ptr @hf_capwap_cisco_value, align 4
  %32 = load ptr, ptr %7, align 8
  %33 = load i32, ptr %9, align 4
  %34 = load i32, ptr %11, align 4
  %35 = call ptr @proto_tree_add_item(ptr noundef %30, i32 noundef %31, ptr noundef %32, i32 noundef %33, i32 noundef %34, i32 noundef 0)
  %36 = load i32, ptr %13, align 4
  switch i32 %36, label %248 [
    i32 2, label %37
    i32 5, label %52
    i32 6, label %62
    i32 54, label %112
    i32 83, label %127
    i32 108, label %163
    i32 123, label %178
    i32 125, label %188
    i32 151, label %196
    i32 207, label %211
    i32 208, label %240
  ]

37:                                               ; preds = %6
  %38 = load ptr, ptr %8, align 8
  %39 = load i32, ptr @hf_capwap_cisco_mwar_type, align 4
  %40 = load ptr, ptr %7, align 8
  %41 = load i32, ptr %9, align 4
  %42 = call ptr @proto_tree_add_item(ptr noundef %38, i32 noundef %39, ptr noundef %40, i32 noundef %41, i32 noundef 1, i32 noundef 0)
  %43 = load i32, ptr %9, align 4
  %44 = add i32 %43, 1
  store i32 %44, ptr %9, align 4
  %45 = load ptr, ptr %8, align 8
  %46 = load i32, ptr @hf_capwap_cisco_mwar_addr, align 4
  %47 = load ptr, ptr %7, align 8
  %48 = load i32, ptr %9, align 4
  %49 = call ptr @proto_tree_add_item(ptr noundef %45, i32 noundef %46, ptr noundef %47, i32 noundef %48, i32 noundef 4, i32 noundef 0)
  %50 = load i32, ptr %9, align 4
  %51 = add i32 %50, 4
  store i32 %51, ptr %9, align 4
  br label %262

52:                                               ; preds = %6
  %53 = load ptr, ptr %8, align 8
  %54 = load i32, ptr @hf_capwap_cisco_rad_name, align 4
  %55 = load ptr, ptr %7, align 8
  %56 = load i32, ptr %9, align 4
  %57 = load i32, ptr %11, align 4
  %58 = call ptr @proto_tree_add_item(ptr noundef %53, i32 noundef %54, ptr noundef %55, i32 noundef %56, i32 noundef %57, i32 noundef 0)
  %59 = load i32, ptr %11, align 4
  %60 = load i32, ptr %9, align 4
  %61 = add i32 %60, %59
  store i32 %61, ptr %9, align 4
  br label %262

62:                                               ; preds = %6
  %63 = load ptr, ptr %8, align 8
  %64 = load i32, ptr @hf_capwap_cisco_mwar_type, align 4
  %65 = load ptr, ptr %7, align 8
  %66 = load i32, ptr %9, align 4
  %67 = call ptr @proto_tree_add_item(ptr noundef %63, i32 noundef %64, ptr noundef %65, i32 noundef %66, i32 noundef 1, i32 noundef 0)
  %68 = load i32, ptr %9, align 4
  %69 = add i32 %68, 1
  store i32 %69, ptr %9, align 4
  %70 = load ptr, ptr %8, align 8
  %71 = load i32, ptr @hf_capwap_cisco_mwar_hardware, align 4
  %72 = load ptr, ptr %7, align 8
  %73 = load i32, ptr %9, align 4
  %74 = call ptr @proto_tree_add_item(ptr noundef %70, i32 noundef %71, ptr noundef %72, i32 noundef %73, i32 noundef 4, i32 noundef 0)
  %75 = load i32, ptr %9, align 4
  %76 = add i32 %75, 4
  store i32 %76, ptr %9, align 4
  %77 = load ptr, ptr %8, align 8
  %78 = load i32, ptr @hf_capwap_cisco_mwar_software, align 4
  %79 = load ptr, ptr %7, align 8
  %80 = load i32, ptr %9, align 4
  %81 = call ptr @proto_tree_add_item(ptr noundef %77, i32 noundef %78, ptr noundef %79, i32 noundef %80, i32 noundef 4, i32 noundef 0)
  %82 = load i32, ptr %9, align 4
  %83 = add i32 %82, 4
  store i32 %83, ptr %9, align 4
  %84 = load ptr, ptr %8, align 8
  %85 = load i32, ptr @hf_capwap_cisco_mwar_active_ms, align 4
  %86 = load ptr, ptr %7, align 8
  %87 = load i32, ptr %9, align 4
  %88 = call ptr @proto_tree_add_item(ptr noundef %84, i32 noundef %85, ptr noundef %86, i32 noundef %87, i32 noundef 2, i32 noundef 0)
  %89 = load i32, ptr %9, align 4
  %90 = add i32 %89, 2
  store i32 %90, ptr %9, align 4
  %91 = load ptr, ptr %8, align 8
  %92 = load i32, ptr @hf_capwap_cisco_mwar_supported_ms, align 4
  %93 = load ptr, ptr %7, align 8
  %94 = load i32, ptr %9, align 4
  %95 = call ptr @proto_tree_add_item(ptr noundef %91, i32 noundef %92, ptr noundef %93, i32 noundef %94, i32 noundef 2, i32 noundef 0)
  %96 = load i32, ptr %9, align 4
  %97 = add i32 %96, 2
  store i32 %97, ptr %9, align 4
  %98 = load ptr, ptr %8, align 8
  %99 = load i32, ptr @hf_capwap_cisco_mwar_active_rad, align 4
  %100 = load ptr, ptr %7, align 8
  %101 = load i32, ptr %9, align 4
  %102 = call ptr @proto_tree_add_item(ptr noundef %98, i32 noundef %99, ptr noundef %100, i32 noundef %101, i32 noundef 2, i32 noundef 0)
  %103 = load i32, ptr %9, align 4
  %104 = add i32 %103, 2
  store i32 %104, ptr %9, align 4
  %105 = load ptr, ptr %8, align 8
  %106 = load i32, ptr @hf_capwap_cisco_mwar_supported_rad, align 4
  %107 = load ptr, ptr %7, align 8
  %108 = load i32, ptr %9, align 4
  %109 = call ptr @proto_tree_add_item(ptr noundef %105, i32 noundef %106, ptr noundef %107, i32 noundef %108, i32 noundef 2, i32 noundef 0)
  %110 = load i32, ptr %9, align 4
  %111 = add i32 %110, 2
  store i32 %111, ptr %9, align 4
  br label %262

112:                                              ; preds = %6
  %113 = load ptr, ptr %8, align 8
  %114 = load i32, ptr @hf_capwap_cisco_ap_mode_and_type_mode, align 4
  %115 = load ptr, ptr %7, align 8
  %116 = load i32, ptr %9, align 4
  %117 = call ptr @proto_tree_add_item(ptr noundef %113, i32 noundef %114, ptr noundef %115, i32 noundef %116, i32 noundef 1, i32 noundef 0)
  %118 = load i32, ptr %9, align 4
  %119 = add i32 %118, 1
  store i32 %119, ptr %9, align 4
  %120 = load ptr, ptr %8, align 8
  %121 = load i32, ptr @hf_capwap_cisco_ap_mode_and_type_type, align 4
  %122 = load ptr, ptr %7, align 8
  %123 = load i32, ptr %9, align 4
  %124 = call ptr @proto_tree_add_item(ptr noundef %120, i32 noundef %121, ptr noundef %122, i32 noundef %123, i32 noundef 1, i32 noundef 0)
  %125 = load i32, ptr %9, align 4
  %126 = add i32 %125, 1
  store i32 %126, ptr %9, align 4
  br label %262

127:                                              ; preds = %6
  %128 = load ptr, ptr %8, align 8
  %129 = load i32, ptr @hf_capwap_cisco_ap_static_ip_addr, align 4
  %130 = load ptr, ptr %7, align 8
  %131 = load i32, ptr %9, align 4
  %132 = call ptr @proto_tree_add_item(ptr noundef %128, i32 noundef %129, ptr noundef %130, i32 noundef %131, i32 noundef 4, i32 noundef 0)
  %133 = load i32, ptr %9, align 4
  %134 = add i32 %133, 4
  store i32 %134, ptr %9, align 4
  %135 = load ptr, ptr %8, align 8
  %136 = load i32, ptr @hf_capwap_cisco_ap_static_ip_netmask, align 4
  %137 = load ptr, ptr %7, align 8
  %138 = load i32, ptr %9, align 4
  %139 = call ptr @proto_tree_add_item(ptr noundef %135, i32 noundef %136, ptr noundef %137, i32 noundef %138, i32 noundef 4, i32 noundef 0)
  %140 = load i32, ptr %9, align 4
  %141 = add i32 %140, 4
  store i32 %141, ptr %9, align 4
  %142 = load ptr, ptr %8, align 8
  %143 = load i32, ptr @hf_capwap_cisco_ap_static_ip_gateway, align 4
  %144 = load ptr, ptr %7, align 8
  %145 = load i32, ptr %9, align 4
  %146 = call ptr @proto_tree_add_item(ptr noundef %142, i32 noundef %143, ptr noundef %144, i32 noundef %145, i32 noundef 4, i32 noundef 0)
  %147 = load i32, ptr %9, align 4
  %148 = add i32 %147, 4
  store i32 %148, ptr %9, align 4
  %149 = load ptr, ptr %8, align 8
  %150 = load i32, ptr @hf_capwap_cisco_ap_static_ip_type, align 4
  %151 = load ptr, ptr %7, align 8
  %152 = load i32, ptr %9, align 4
  %153 = call ptr @proto_tree_add_item(ptr noundef %149, i32 noundef %150, ptr noundef %151, i32 noundef %152, i32 noundef 1, i32 noundef 0)
  %154 = load i32, ptr %9, align 4
  %155 = add i32 %154, 1
  store i32 %155, ptr %9, align 4
  %156 = load ptr, ptr %8, align 8
  %157 = load i32, ptr @hf_capwap_cisco_ap_static_ip_reserved, align 4
  %158 = load ptr, ptr %7, align 8
  %159 = load i32, ptr %9, align 4
  %160 = call ptr @proto_tree_add_item(ptr noundef %156, i32 noundef %157, ptr noundef %158, i32 noundef %159, i32 noundef 4, i32 noundef 0)
  %161 = load i32, ptr %9, align 4
  %162 = add i32 %161, 4
  store i32 %162, ptr %9, align 4
  br label %262

163:                                              ; preds = %6
  %164 = load ptr, ptr %8, align 8
  %165 = load i32, ptr @hf_capwap_cisco_ap_uptime_current, align 4
  %166 = load ptr, ptr %7, align 8
  %167 = load i32, ptr %9, align 4
  %168 = call ptr @proto_tree_add_item(ptr noundef %164, i32 noundef %165, ptr noundef %166, i32 noundef %167, i32 noundef 4, i32 noundef 0)
  %169 = load i32, ptr %9, align 4
  %170 = add i32 %169, 4
  store i32 %170, ptr %9, align 4
  %171 = load ptr, ptr %8, align 8
  %172 = load i32, ptr @hf_capwap_cisco_ap_uptime_last, align 4
  %173 = load ptr, ptr %7, align 8
  %174 = load i32, ptr %9, align 4
  %175 = call ptr @proto_tree_add_item(ptr noundef %171, i32 noundef %172, ptr noundef %173, i32 noundef %174, i32 noundef 4, i32 noundef 0)
  %176 = load i32, ptr %9, align 4
  %177 = add i32 %176, 4
  store i32 %177, ptr %9, align 4
  br label %262

178:                                              ; preds = %6
  %179 = load ptr, ptr %8, align 8
  %180 = load i32, ptr @hf_capwap_cisco_ap_group_name, align 4
  %181 = load ptr, ptr %7, align 8
  %182 = load i32, ptr %9, align 4
  %183 = load i32, ptr %11, align 4
  %184 = call ptr @proto_tree_add_item(ptr noundef %179, i32 noundef %180, ptr noundef %181, i32 noundef %182, i32 noundef %183, i32 noundef 0)
  %185 = load i32, ptr %11, align 4
  %186 = load i32, ptr %9, align 4
  %187 = add i32 %186, %185
  store i32 %187, ptr %9, align 4
  br label %262

188:                                              ; preds = %6
  %189 = load ptr, ptr %8, align 8
  %190 = load i32, ptr @hf_capwap_cisco_ap_led_state, align 4
  %191 = load ptr, ptr %7, align 8
  %192 = load i32, ptr %9, align 4
  %193 = call ptr @proto_tree_add_item(ptr noundef %189, i32 noundef %190, ptr noundef %191, i32 noundef %192, i32 noundef 2, i32 noundef 0)
  %194 = load i32, ptr %9, align 4
  %195 = add i32 %194, 2
  store i32 %195, ptr %9, align 4
  br label %262

196:                                              ; preds = %6
  %197 = load ptr, ptr %8, align 8
  %198 = load i32, ptr @hf_capwap_cisco_ap_timesync, align 4
  %199 = load ptr, ptr %7, align 8
  %200 = load i32, ptr %9, align 4
  %201 = call ptr @proto_tree_add_item(ptr noundef %197, i32 noundef %198, ptr noundef %199, i32 noundef %200, i32 noundef 4, i32 noundef 0)
  %202 = load i32, ptr %9, align 4
  %203 = add i32 %202, 4
  store i32 %203, ptr %9, align 4
  %204 = load ptr, ptr %8, align 8
  %205 = load i32, ptr @hf_capwap_cisco_ap_timesync_type, align 4
  %206 = load ptr, ptr %7, align 8
  %207 = load i32, ptr %9, align 4
  %208 = call ptr @proto_tree_add_item(ptr noundef %204, i32 noundef %205, ptr noundef %206, i32 noundef %207, i32 noundef 1, i32 noundef 0)
  %209 = load i32, ptr %9, align 4
  %210 = add i32 %209, 1
  store i32 %210, ptr %9, align 4
  br label %262

211:                                              ; preds = %6
  %212 = load ptr, ptr %8, align 8
  %213 = load i32, ptr @hf_capwap_cisco_board_data_options_ant_type, align 4
  %214 = load ptr, ptr %7, align 8
  %215 = load i32, ptr %9, align 4
  %216 = call ptr @proto_tree_add_item(ptr noundef %212, i32 noundef %213, ptr noundef %214, i32 noundef %215, i32 noundef 1, i32 noundef 0)
  %217 = load i32, ptr %9, align 4
  %218 = add i32 %217, 1
  store i32 %218, ptr %9, align 4
  %219 = load ptr, ptr %8, align 8
  %220 = load i32, ptr @hf_capwap_cisco_board_data_options_flex_connect, align 4
  %221 = load ptr, ptr %7, align 8
  %222 = load i32, ptr %9, align 4
  %223 = call ptr @proto_tree_add_item(ptr noundef %219, i32 noundef %220, ptr noundef %221, i32 noundef %222, i32 noundef 1, i32 noundef 0)
  %224 = load i32, ptr %9, align 4
  %225 = add i32 %224, 1
  store i32 %225, ptr %9, align 4
  %226 = load ptr, ptr %8, align 8
  %227 = load i32, ptr @hf_capwap_cisco_board_data_options_ap_type, align 4
  %228 = load ptr, ptr %7, align 8
  %229 = load i32, ptr %9, align 4
  %230 = call ptr @proto_tree_add_item(ptr noundef %226, i32 noundef %227, ptr noundef %228, i32 noundef %229, i32 noundef 1, i32 noundef 0)
  %231 = load i32, ptr %9, align 4
  %232 = add i32 %231, 1
  store i32 %232, ptr %9, align 4
  %233 = load ptr, ptr %8, align 8
  %234 = load i32, ptr @hf_capwap_cisco_board_data_options_join_priority, align 4
  %235 = load ptr, ptr %7, align 8
  %236 = load i32, ptr %9, align 4
  %237 = call ptr @proto_tree_add_item(ptr noundef %233, i32 noundef %234, ptr noundef %235, i32 noundef %236, i32 noundef 1, i32 noundef 0)
  %238 = load i32, ptr %9, align 4
  %239 = add i32 %238, 1
  store i32 %239, ptr %9, align 4
  br label %262

240:                                              ; preds = %6
  %241 = load ptr, ptr %8, align 8
  %242 = load i32, ptr @hf_capwap_cisco_mwar_type, align 4
  %243 = load ptr, ptr %7, align 8
  %244 = load i32, ptr %9, align 4
  %245 = call ptr @proto_tree_add_item(ptr noundef %241, i32 noundef %242, ptr noundef %243, i32 noundef %244, i32 noundef 1, i32 noundef 0)
  %246 = load i32, ptr %9, align 4
  %247 = add i32 %246, 1
  store i32 %247, ptr %9, align 4
  br label %262

248:                                              ; preds = %6
  %249 = load ptr, ptr %10, align 8
  %250 = load ptr, ptr %12, align 8
  %251 = load i32, ptr %13, align 4
  %252 = call ptr (ptr, ptr, ptr, ptr, ...) @expert_add_info_format(ptr noundef %249, ptr noundef %250, ptr noundef @ei_capwap_message_element_cisco_type, ptr noundef @.str.1157, i32 noundef %251)
  %253 = load ptr, ptr %8, align 8
  %254 = load i32, ptr @hf_capwap_cisco_unknown, align 4
  %255 = load ptr, ptr %7, align 8
  %256 = load i32, ptr %9, align 4
  %257 = load i32, ptr %11, align 4
  %258 = call ptr @proto_tree_add_item(ptr noundef %253, i32 noundef %254, ptr noundef %255, i32 noundef %256, i32 noundef %257, i32 noundef 0)
  %259 = load i32, ptr %11, align 4
  %260 = load i32, ptr %9, align 4
  %261 = add i32 %260, %259
  store i32 %261, ptr %9, align 4
  br label %262

262:                                              ; preds = %248, %240, %211, %196, %188, %178, %163, %127, %112, %62, %52, %37
  %263 = load i32, ptr %9, align 4
  call void @llvm.lifetime.end.p0(i64 4, ptr %13) #3
  ret i32 %263
}