; Function Attrs: null_pointer_is_valid sspstrong uwtable
define internal fastcc void @dissect_capwap_message_element_vendor_cisco_type(ptr noundef %0, ptr noundef %1, i32 noundef %2, ptr noundef %3, i32 noundef range(i32 7, 65536) %4, ptr noundef %5) unnamed_addr #0 {
  %7 = load i32, ptr @hf_capwap_cisco_element_id, align 4
  %8 = tail call ptr @proto_tree_add_item(ptr noundef %1, i32 noundef %7, ptr noundef %0, i32 noundef %2, i32 noundef 2, i32 noundef 0)
  %9 = tail call zeroext i16 @tvb_get_ntohs(ptr noundef %0, i32 noundef %2)
  %10 = zext i16 %9 to i32
  %11 = tail call ptr @val_to_str(i32 noundef %10, ptr noundef nonnull @cisco_element_id_vals, ptr noundef nonnull @.str.1153)
  tail call void (ptr, ptr, ...) @proto_item_append_text(ptr noundef %5, ptr noundef nonnull @.str.1156, ptr noundef %11)
  %12 = add i32 %2, 2
  %13 = add nsw i32 %4, -6
  %14 = load i32, ptr @hf_capwap_cisco_value, align 4
  %15 = tail call ptr @proto_tree_add_item(ptr noundef %1, i32 noundef %14, ptr noundef %0, i32 noundef %12, i32 noundef %13, i32 noundef 0)
  switch i16 %9, label %100 [
    i16 2, label %16
    i16 5, label %22
    i16 6, label %25
    i16 54, label %46
    i16 83, label %52
    i16 108, label %67
    i16 123, label %73
    i16 125, label %76
    i16 151, label %79
    i16 207, label %85
    i16 208, label %97
  ]

16:                                               ; preds = %6
  %17 = load i32, ptr @hf_capwap_cisco_mwar_type, align 4
  %18 = tail call ptr @proto_tree_add_item(ptr noundef %1, i32 noundef %17, ptr noundef %0, i32 noundef %12, i32 noundef 1, i32 noundef 0)
  %19 = add i32 %2, 3
  %20 = load i32, ptr @hf_capwap_cisco_mwar_addr, align 4
  %21 = tail call ptr @proto_tree_add_item(ptr noundef %1, i32 noundef %20, ptr noundef %0, i32 noundef %19, i32 noundef 4, i32 noundef 0)
  br label %104

22:                                               ; preds = %6
  %23 = load i32, ptr @hf_capwap_cisco_rad_name, align 4
  %24 = tail call ptr @proto_tree_add_item(ptr noundef %1, i32 noundef %23, ptr noundef %0, i32 noundef %12, i32 noundef %13, i32 noundef 0)
  br label %104

25:                                               ; preds = %6
  %26 = load i32, ptr @hf_capwap_cisco_mwar_type, align 4
  %27 = tail call ptr @proto_tree_add_item(ptr noundef %1, i32 noundef %26, ptr noundef %0, i32 noundef %12, i32 noundef 1, i32 noundef 0)
  %28 = add i32 %2, 3
  %29 = load i32, ptr @hf_capwap_cisco_mwar_hardware, align 4
  %30 = tail call ptr @proto_tree_add_item(ptr noundef %1, i32 noundef %29, ptr noundef %0, i32 noundef %28, i32 noundef 4, i32 noundef 0)
  %31 = add i32 %2, 7
  %32 = load i32, ptr @hf_capwap_cisco_mwar_software, align 4
  %33 = tail call ptr @proto_tree_add_item(ptr noundef %1, i32 noundef %32, ptr noundef %0, i32 noundef %31, i32 noundef 4, i32 noundef 0)
  %34 = add i32 %2, 11
  %35 = load i32, ptr @hf_capwap_cisco_mwar_active_ms, align 4
  %36 = tail call ptr @proto_tree_add_item(ptr noundef %1, i32 noundef %35, ptr noundef %0, i32 noundef %34, i32 noundef 2, i32 noundef 0)
  %37 = add i32 %2, 13
  %38 = load i32, ptr @hf_capwap_cisco_mwar_supported_ms, align 4
  %39 = tail call ptr @proto_tree_add_item(ptr noundef %1, i32 noundef %38, ptr noundef %0, i32 noundef %37, i32 noundef 2, i32 noundef 0)
  %40 = add i32 %2, 15
  %41 = load i32, ptr @hf_capwap_cisco_mwar_active_rad, align 4
  %42 = tail call ptr @proto_tree_add_item(ptr noundef %1, i32 noundef %41, ptr noundef %0, i32 noundef %40, i32 noundef 2, i32 noundef 0)
  %43 = add i32 %2, 17
  %44 = load i32, ptr @hf_capwap_cisco_mwar_supported_rad, align 4
  %45 = tail call ptr @proto_tree_add_item(ptr noundef %1, i32 noundef %44, ptr noundef %0, i32 noundef %43, i32 noundef 2, i32 noundef 0)
  br label %104

46:                                               ; preds = %6
  %47 = load i32, ptr @hf_capwap_cisco_ap_mode_and_type_mode, align 4
  %48 = tail call ptr @proto_tree_add_item(ptr noundef %1, i32 noundef %47, ptr noundef %0, i32 noundef %12, i32 noundef 1, i32 noundef 0)
  %49 = add i32 %2, 3
  %50 = load i32, ptr @hf_capwap_cisco_ap_mode_and_type_type, align 4
  %51 = tail call ptr @proto_tree_add_item(ptr noundef %1, i32 noundef %50, ptr noundef %0, i32 noundef %49, i32 noundef 1, i32 noundef 0)
  br label %104

52:                                               ; preds = %6
  %53 = load i32, ptr @hf_capwap_cisco_ap_static_ip_addr, align 4
  %54 = tail call ptr @proto_tree_add_item(ptr noundef %1, i32 noundef %53, ptr noundef %0, i32 noundef %12, i32 noundef 4, i32 noundef 0)
  %55 = add i32 %2, 6
  %56 = load i32, ptr @hf_capwap_cisco_ap_static_ip_netmask, align 4
  %57 = tail call ptr @proto_tree_add_item(ptr noundef %1, i32 noundef %56, ptr noundef %0, i32 noundef %55, i32 noundef 4, i32 noundef 0)
  %58 = add i32 %2, 10
  %59 = load i32, ptr @hf_capwap_cisco_ap_static_ip_gateway, align 4
  %60 = tail call ptr @proto_tree_add_item(ptr noundef %1, i32 noundef %59, ptr noundef %0, i32 noundef %58, i32 noundef 4, i32 noundef 0)
  %61 = add i32 %2, 14
  %62 = load i32, ptr @hf_capwap_cisco_ap_static_ip_type, align 4
  %63 = tail call ptr @proto_tree_add_item(ptr noundef %1, i32 noundef %62, ptr noundef %0, i32 noundef %61, i32 noundef 1, i32 noundef 0)
  %64 = add i32 %2, 15
  %65 = load i32, ptr @hf_capwap_cisco_ap_static_ip_reserved, align 4
  %66 = tail call ptr @proto_tree_add_item(ptr noundef %1, i32 noundef %65, ptr noundef %0, i32 noundef %64, i32 noundef 4, i32 noundef 0)
  br label %104

67:                                               ; preds = %6
  %68 = load i32, ptr @hf_capwap_cisco_ap_uptime_current, align 4
  %69 = tail call ptr @proto_tree_add_item(ptr noundef %1, i32 noundef %68, ptr noundef %0, i32 noundef %12, i32 noundef 4, i32 noundef 0)
  %70 = add i32 %2, 6
  %71 = load i32, ptr @hf_capwap_cisco_ap_uptime_last, align 4
  %72 = tail call ptr @proto_tree_add_item(ptr noundef %1, i32 noundef %71, ptr noundef %0, i32 noundef %70, i32 noundef 4, i32 noundef 0)
  br label %104

73:                                               ; preds = %6
  %74 = load i32, ptr @hf_capwap_cisco_ap_group_name, align 4
  %75 = tail call ptr @proto_tree_add_item(ptr noundef %1, i32 noundef %74, ptr noundef %0, i32 noundef %12, i32 noundef %13, i32 noundef 0)
  br label %104

76:                                               ; preds = %6
  %77 = load i32, ptr @hf_capwap_cisco_ap_led_state, align 4
  %78 = tail call ptr @proto_tree_add_item(ptr noundef %1, i32 noundef %77, ptr noundef %0, i32 noundef %12, i32 noundef 2, i32 noundef 0)
  br label %104

79:                                               ; preds = %6
  %80 = load i32, ptr @hf_capwap_cisco_ap_timesync, align 4
  %81 = tail call ptr @proto_tree_add_item(ptr noundef %1, i32 noundef %80, ptr noundef %0, i32 noundef %12, i32 noundef 4, i32 noundef 0)
  %82 = add i32 %2, 6
  %83 = load i32, ptr @hf_capwap_cisco_ap_timesync_type, align 4
  %84 = tail call ptr @proto_tree_add_item(ptr noundef %1, i32 noundef %83, ptr noundef %0, i32 noundef %82, i32 noundef 1, i32 noundef 0)
  br label %104

85:                                               ; preds = %6
  %86 = load i32, ptr @hf_capwap_cisco_board_data_options_ant_type, align 4
  %87 = tail call ptr @proto_tree_add_item(ptr noundef %1, i32 noundef %86, ptr noundef %0, i32 noundef %12, i32 noundef 1, i32 noundef 0)
  %88 = add i32 %2, 3
  %89 = load i32, ptr @hf_capwap_cisco_board_data_options_flex_connect, align 4
  %90 = tail call ptr @proto_tree_add_item(ptr noundef %1, i32 noundef %89, ptr noundef %0, i32 noundef %88, i32 noundef 1, i32 noundef 0)
  %91 = add i32 %2, 4
  %92 = load i32, ptr @hf_capwap_cisco_board_data_options_ap_type, align 4
  %93 = tail call ptr @proto_tree_add_item(ptr noundef %1, i32 noundef %92, ptr noundef %0, i32 noundef %91, i32 noundef 1, i32 noundef 0)
  %94 = add i32 %2, 5
  %95 = load i32, ptr @hf_capwap_cisco_board_data_options_join_priority, align 4
  %96 = tail call ptr @proto_tree_add_item(ptr noundef %1, i32 noundef %95, ptr noundef %0, i32 noundef %94, i32 noundef 1, i32 noundef 0)
  br label %104

97:                                               ; preds = %6
  %98 = load i32, ptr @hf_capwap_cisco_mwar_type, align 4
  %99 = tail call ptr @proto_tree_add_item(ptr noundef %1, i32 noundef %98, ptr noundef %0, i32 noundef %12, i32 noundef 1, i32 noundef 0)
  br label %104

100:                                              ; preds = %6
  %101 = tail call ptr (ptr, ptr, ptr, ptr, ...) @expert_add_info_format(ptr noundef %3, ptr noundef %5, ptr noundef nonnull @ei_capwap_message_element_cisco_type, ptr noundef nonnull @.str.1157, i32 noundef %10)
  %102 = load i32, ptr @hf_capwap_cisco_unknown, align 4
  %103 = tail call ptr @proto_tree_add_item(ptr noundef %1, i32 noundef %102, ptr noundef %0, i32 noundef %12, i32 noundef %13, i32 noundef 0)
  br label %104

104:                                              ; preds = %100, %97, %85, %79, %76, %73, %67, %52, %46, %25, %22, %16
  ret void
}